target datalayout = "e-m:e-p270:32:32-p271:32:32-p272:64:64-i64:64-i128:128-f80:128-n8:16:32:64-S128"
target triple = "x86_64-pc-linux-gnu"

%struct._object = type { %union.anon, ptr }
%union.anon = type { i64 }
%struct.PyVarObject = type { %struct._object, i64 }
%struct.anon = type { i32, i32 }
%struct.PyTupleObject = type { %struct.PyVarObject, [1 x ptr] }
%struct.methodcallerobject = type { %struct._object, ptr, ptr, ptr, ptr, ptr, ptr }

@.str.87 = private unnamed_addr constant [13 x i8] c"methodcaller\00", align 1

; Function Attrs: alwaysinline nounwind uwtable
define internal i32 @_Py_IsImmortal(ptr noundef %0) #4 {
  %2 = alloca ptr, align 8
  store ptr %0, ptr %2, align 8, !tbaa !4
  %3 = load ptr, ptr %2, align 8, !tbaa !4
  %4 = getelementptr inbounds nuw %struct._object, ptr %3, i32 0, i32 0
  %5 = getelementptr inbounds nuw %struct.anon, ptr %4, i32 0, i32 0
  %6 = load i32, ptr %5, align 8, !tbaa !20
  %7 = icmp slt i32 %6, 0
  %8 = zext i1 %7 to i32
  ret i32 %8
}

; Function Attrs: inlinehint nounwind uwtable
define internal i64 @Py_SIZE(ptr noundef %0) #3 {
  %2 = alloca ptr, align 8
  store ptr %0, ptr %2, align 8, !tbaa !4
  %3 = load ptr, ptr %2, align 8, !tbaa !4
  %4 = getelementptr inbounds nuw %struct.PyVarObject, ptr %3, i32 0, i32 1
  %5 = load i64, ptr %4, align 8, !tbaa !60
  ret i64 %5
}

; Function Attrs: alwaysinline nounwind uwtable
define internal void @Py_DECREF(ptr noundef %0) #4 {
  %2 = alloca ptr, align 8
  store ptr %0, ptr %2, align 8, !tbaa !4
  %3 = load ptr, ptr %2, align 8, !tbaa !4
  %4 = call i32 @_Py_IsImmortal(ptr noundef %3)
  %5 = icmp ne i32 %4, 0
  br i1 %5, label %6, label %7

6:                                                ; preds = %1
  br label %16

7:                                                ; preds = %1
  %8 = load ptr, ptr %2, align 8, !tbaa !4
  %9 = getelementptr inbounds nuw %struct._object, ptr %8, i32 0, i32 0
  %10 = getelementptr inbounds nuw %struct.anon, ptr %9, i32 0, i32 0
  %11 = load i32, ptr %10, align 8, !tbaa !20
  %12 = add i32 %11, -1
  store i32 %12, ptr %10, align 8, !tbaa !20
  %13 = icmp eq i32 %12, 0
  br i1 %13, label %14, label %16

14:                                               ; preds = %7
  %15 = load ptr, ptr %2, align 8, !tbaa !4
  call void @_Py_Dealloc(ptr noundef %15)
  br label %16

16:                                               ; preds = %6, %14, %7
  ret void
}

; Function Attrs: inlinehint nounwind uwtable
define internal i64 @PyTuple_GET_SIZE(ptr noundef %0) #3 {
  %2 = alloca ptr, align 8
  %3 = alloca ptr, align 8
  store ptr %0, ptr %2, align 8, !tbaa !4
  call void @llvm.lifetime.start.p0(i64 8, ptr %3) #7
  %4 = load ptr, ptr %2, align 8, !tbaa !4
  store ptr %4, ptr %3, align 8, !tbaa !9
  %5 = load ptr, ptr %3, align 8, !tbaa !9
  %6 = call i64 @Py_SIZE(ptr noundef %5)
  call void @llvm.lifetime.end.p0(i64 8, ptr %3) #7
  ret i64 %6
}

; Function Attrs: nounwind uwtable
define internal ptr @methodcaller_call(ptr noundef %0, ptr noundef %1, ptr noundef %2) #0 {
  %4 = alloca ptr, align 8
  %5 = alloca ptr, align 8
  %6 = alloca ptr, align 8
  %7 = alloca ptr, align 8
  %8 = alloca ptr, align 8
  %9 = alloca ptr, align 8
  %10 = alloca ptr, align 8
  %11 = alloca i32, align 4
  store ptr %0, ptr %5, align 8, !tbaa !9
  store ptr %1, ptr %6, align 8, !tbaa !4
  store ptr %2, ptr %7, align 8, !tbaa !4
  call void @llvm.lifetime.start.p0(i64 8, ptr %8) #7
  call void @llvm.lifetime.start.p0(i64 8, ptr %9) #7
  call void @llvm.lifetime.start.p0(i64 8, ptr %10) #7
  %12 = load ptr, ptr %7, align 8, !tbaa !4
  %13 = icmp eq ptr %12, null
  br i1 %13, label %19, label %14

14:                                               ; preds = %3
  %15 = load ptr, ptr %7, align 8, !tbaa !4
  %16 = call i32 @_PyArg_NoKeywords(ptr noundef @.str.87, ptr noundef %15)
  %17 = icmp ne i32 %16, 0
  br i1 %17, label %19, label %18

18:                                               ; preds = %14
  store ptr null, ptr %4, align 8
  store i32 1, ptr %11, align 4
  br label %57

19:                                               ; preds = %14, %3
  %20 = load ptr, ptr %6, align 8, !tbaa !4
  %21 = call i64 @PyTuple_GET_SIZE(ptr noundef %20)
  %22 = icmp sle i64 1, %21
  br i1 %22, label %23, label %27

23:                                               ; preds = %19
  %24 = load ptr, ptr %6, align 8, !tbaa !4
  %25 = call i64 @PyTuple_GET_SIZE(ptr noundef %24)
  %26 = icmp sle i64 %25, 1
  br i1 %26, label %33, label %27

27:                                               ; preds = %23, %19
  %28 = load ptr, ptr %6, align 8, !tbaa !4
  %29 = call i64 @PyTuple_GET_SIZE(ptr noundef %28)
  %30 = call i32 @_PyArg_CheckPositional(ptr noundef @.str.87, i64 noundef %29, i64 noundef 1, i64 noundef 1)
  %31 = icmp ne i32 %30, 0
  br i1 %31, label %33, label %32

32:                                               ; preds = %27
  store ptr null, ptr %4, align 8
  store i32 1, ptr %11, align 4
  br label %57

33:                                               ; preds = %27, %23
  %34 = load ptr, ptr %6, align 8, !tbaa !4
  %35 = getelementptr inbounds nuw %struct.PyTupleObject, ptr %34, i32 0, i32 1
  %36 = getelementptr [1 x ptr], ptr %35, i64 0, i64 0
  %37 = load ptr, ptr %36, align 8, !tbaa !4
  store ptr %37, ptr %9, align 8, !tbaa !4
  %38 = load ptr, ptr %9, align 8, !tbaa !4
  %39 = load ptr, ptr %5, align 8, !tbaa !9
  %40 = getelementptr inbounds nuw %struct.methodcallerobject, ptr %39, i32 0, i32 1
  %41 = load ptr, ptr %40, align 8, !tbaa !90
  %42 = call ptr @PyObject_GetAttr(ptr noundef %38, ptr noundef %41)
  store ptr %42, ptr %8, align 8, !tbaa !4
  %43 = load ptr, ptr %8, align 8, !tbaa !4
  %44 = icmp eq ptr %43, null
  br i1 %44, label %45, label %46

45:                                               ; preds = %33
  store ptr null, ptr %4, align 8
  store i32 1, ptr %11, align 4
  br label %57

46:                                               ; preds = %33
  %47 = load ptr, ptr %8, align 8, !tbaa !4
  %48 = load ptr, ptr %5, align 8, !tbaa !9
  %49 = getelementptr inbounds nuw %struct.methodcallerobject, ptr %48, i32 0, i32 2
  %50 = load ptr, ptr %49, align 8, !tbaa !92
  %51 = load ptr, ptr %5, align 8, !tbaa !9
  %52 = getelementptr inbounds nuw %struct.methodcallerobject, ptr %51, i32 0, i32 3
  %53 = load ptr, ptr %52, align 8, !tbaa !93
  %54 = call ptr @PyObject_Call(ptr noundef %47, ptr noundef %50, ptr noundef %53)
  store ptr %54, ptr %10, align 8, !tbaa !4
  %55 = load ptr, ptr %8, align 8, !tbaa !4
  call void @Py_DECREF(ptr noundef %55)
  %56 = load ptr, ptr %10, align 8, !tbaa !4
  store ptr %56, ptr %4, align 8
  store i32 1, ptr %11, align 4
  br label %57

57:                                               ; preds = %46, %45, %32, %18
  call void @llvm.lifetime.end.p0(i64 8, ptr %10) #7
  call void @llvm.lifetime.end.p0(i64 8, ptr %9) #7
  call void @llvm.lifetime.end.p0(i64 8, ptr %8) #7
  %58 = load ptr, ptr %4, align 8
  ret ptr %58
}