; Function Attrs: nounwind uwtable
define internal ptr @methodcaller_call(ptr noundef readonly captures(none) %0, ptr noundef readonly captures(none) %1, ptr noundef %2) #0 {
  %4 = icmp eq ptr %2, null
  br i1 %4, label %7, label %5

5:                                                ; preds = %3
  %6 = tail call i32 @_PyArg_NoKeywords(ptr noundef nonnull @.str.87, ptr noundef nonnull %2) #7
  %.not = icmp eq i32 %6, 0
  br i1 %.not, label %Py_DECREF.exit, label %7

7:                                                ; preds = %5, %3
  %8 = getelementptr i8, ptr %1, i64 16
  %.val19 = load i64, ptr %8, align 8, !tbaa !43
  %or.cond = icmp eq i64 %.val19, 1
  br i1 %or.cond, label %11, label %9

9:                                                ; preds = %7
  %10 = tail call i32 @_PyArg_CheckPositional(ptr noundef nonnull @.str.87, i64 noundef %.val19, i64 noundef 1, i64 noundef 1) #7
  %.not17 = icmp eq i32 %10, 0
  br i1 %.not17, label %Py_DECREF.exit, label %11

11:                                               ; preds = %7, %9
  %12 = getelementptr inbounds nuw i8, ptr %1, i64 24
  %13 = load ptr, ptr %12, align 8, !tbaa !17
  %14 = getelementptr inbounds nuw i8, ptr %0, i64 16
  %15 = load ptr, ptr %14, align 8, !tbaa !83
  %16 = tail call ptr @PyObject_GetAttr(ptr noundef %13, ptr noundef %15) #7
  %17 = icmp eq ptr %16, null
  br i1 %17, label %Py_DECREF.exit, label %18

18:                                               ; preds = %11
  %19 = getelementptr inbounds nuw i8, ptr %0, i64 24
  %20 = load ptr, ptr %19, align 8, !tbaa !85
  %21 = getelementptr inbounds nuw i8, ptr %0, i64 32
  %22 = load ptr, ptr %21, align 8, !tbaa !86
  %23 = tail call ptr @PyObject_Call(ptr noundef nonnull %16, ptr noundef %20, ptr noundef %22) #7
  %24 = load i32, ptr %16, align 8, !tbaa !18
  %.not.i = icmp sgt i32 %24, -1
  br i1 %.not.i, label %25, label %Py_DECREF.exit

25:                                               ; preds = %18
  %26 = add nsw i32 %24, -1
  store i32 %26, ptr %16, align 8, !tbaa !18
  %27 = icmp eq i32 %26, 0
  br i1 %27, label %28, label %Py_DECREF.exit

28:                                               ; preds = %25
  tail call void @_Py_Dealloc(ptr noundef nonnull %16) #7
  br label %Py_DECREF.exit

Py_DECREF.exit:                                   ; preds = %28, %25, %18, %11, %9, %5
  %.0 = phi ptr [ null, %5 ], [ null, %9 ], [ null, %11 ], [ %23, %18 ], [ %23, %25 ], [ %23, %28 ]
  ret ptr %.0
}